target datalayout = "e-m:e-p270:32:32-p271:32:32-p272:64:64-i64:64-i128:128-f80:128-n8:16:32:64-S128"
target triple = "x86_64-pc-linux-gnu"

%class.MemReporterBase = type { i64, ptr, %class.StreamAutoIndentor }
%class.StreamAutoIndentor = type <{ ptr, i8, [7 x i8] }>
%class.streamIndentor = type <{ ptr, i32, [4 x i8] }>
%class.NativeCallStackPrinter = type { %class.Arena, %class.ResourceHashtable, ptr }
%class.Arena = type { i8, i8, i64, ptr, ptr, ptr, ptr }
%class.ResourceHashtable = type { %class.ResourceHashtableBase.base, [4 x i8] }
%class.ResourceHashtableBase.base = type <{ %class.FixedResourceHashtableStorage, i32 }>
%class.FixedResourceHashtableStorage = type { [293 x ptr] }
%class.outputStream = type { ptr, i32, i8, i32, i64, %class.TimeStamp, ptr, i64 }
%class.TimeStamp = type { i64 }
%class.MemSummaryDiffReporter = type { ptr, %class.MemReporterBase, ptr, ptr }
%class.MemDetailDiffReporter = type { %class.MemSummaryDiffReporter, %class.NativeCallStackPrinter }

@.str.10 = private unnamed_addr constant [2 x i8] c")\00", align 1
@.str.38 = private unnamed_addr constant [2 x i8] c"(\00", align 1

; Function Attrs: mustprogress nounwind uwtable
define linkonce_odr hidden void @_ZN12outputStream3decEi(ptr noundef nonnull align 8 dereferenceable(56) %0, i32 noundef %1) #1 comdat align 2 {
  %3 = alloca ptr, align 8
  %4 = alloca i32, align 4
  store ptr %0, ptr %3, align 8
  store i32 %1, ptr %4, align 4
  %5 = load ptr, ptr %3, align 8
  %6 = load i32, ptr %4, align 4
  %7 = getelementptr inbounds %class.outputStream, ptr %5, i32 0, i32 1
  %8 = load i32, ptr %7, align 8
  %9 = sub nsw i32 %8, %6
  store i32 %9, ptr %7, align 8
  ret void
}

; Function Attrs: mustprogress nounwind uwtable
define linkonce_odr hidden void @_ZN12outputStream3incEi(ptr noundef nonnull align 8 dereferenceable(56) %0, i32 noundef %1) #1 comdat align 2 {
  %3 = alloca ptr, align 8
  %4 = alloca i32, align 4
  store ptr %0, ptr %3, align 8
  store i32 %1, ptr %4, align 4
  %5 = load ptr, ptr %3, align 8
  %6 = load i32, ptr %4, align 4
  %7 = getelementptr inbounds %class.outputStream, ptr %5, i32 0, i32 1
  %8 = load i32, ptr %7, align 8
  %9 = add nsw i32 %8, %6
  store i32 %9, ptr %7, align 8
  ret void
}

; Function Attrs: mustprogress nounwind uwtable
define internal void @_ZL4swapImEvRT_S1_(ptr noundef nonnull align 8 dereferenceable(8) %0, ptr noundef nonnull align 8 dereferenceable(8) %1) #1 {
  %3 = alloca ptr, align 8
  %4 = alloca ptr, align 8
  %5 = alloca i64, align 8
  store ptr %0, ptr %3, align 8
  store ptr %1, ptr %4, align 8
  %6 = load ptr, ptr %3, align 8
  %7 = load i64, ptr %6, align 8
  store i64 %7, ptr %5, align 8
  %8 = load ptr, ptr %4, align 8
  %9 = load i64, ptr %8, align 8
  %10 = load ptr, ptr %3, align 8
  store i64 %9, ptr %10, align 8
  %11 = load i64, ptr %5, align 8
  %12 = load ptr, ptr %4, align 8
  store i64 %11, ptr %12, align 8
  ret void
}

; Function Attrs: mustprogress nounwind uwtable
define linkonce_odr hidden void @_ZN14streamIndentorD2Ev(ptr noundef nonnull align 8 dereferenceable(12) %0) unnamed_addr #1 comdat align 2 {
  %2 = alloca ptr, align 8
  store ptr %0, ptr %2, align 8
  %3 = load ptr, ptr %2, align 8
  %4 = getelementptr inbounds %class.streamIndentor, ptr %3, i32 0, i32 0
  %5 = load ptr, ptr %4, align 8
  %6 = getelementptr inbounds %class.streamIndentor, ptr %3, i32 0, i32 1
  %7 = load i32, ptr %6, align 8
  call void @_ZN12outputStream3decEi(ptr noundef nonnull align 8 dereferenceable(56) %5, i32 noundef %7)
  ret void
}

; Function Attrs: mustprogress nounwind uwtable
define linkonce_odr hidden void @_ZN14streamIndentorC2EP12outputStreami(ptr noundef nonnull align 8 dereferenceable(12) %0, ptr noundef %1, i32 noundef %2) unnamed_addr #1 comdat align 2 {
  %4 = alloca ptr, align 8
  %5 = alloca ptr, align 8
  %6 = alloca i32, align 4
  store ptr %0, ptr %4, align 8
  store ptr %1, ptr %5, align 8
  store i32 %2, ptr %6, align 4
  %7 = load ptr, ptr %4, align 8
  %8 = getelementptr inbounds %class.streamIndentor, ptr %7, i32 0, i32 0
  %9 = load ptr, ptr %5, align 8
  store ptr %9, ptr %8, align 8
  %10 = getelementptr inbounds %class.streamIndentor, ptr %7, i32 0, i32 1
  %11 = load i32, ptr %6, align 4
  store i32 %11, ptr %10, align 8
  %12 = getelementptr inbounds %class.streamIndentor, ptr %7, i32 0, i32 0
  %13 = load ptr, ptr %12, align 8
  %14 = getelementptr inbounds %class.streamIndentor, ptr %7, i32 0, i32 1
  %15 = load i32, ptr %14, align 8
  call void @_ZN12outputStream3incEi(ptr noundef nonnull align 8 dereferenceable(56) %13, i32 noundef %15)
  ret void
}

; Function Attrs: mustprogress nounwind uwtable
define linkonce_odr hidden noundef i64 @_ZNK15MemReporterBase21diff_in_current_scaleEmm(ptr noundef nonnull align 8 dereferenceable(32) %0, i64 noundef %1, i64 noundef %2) #1 comdat align 2 {
  %4 = alloca ptr, align 8
  %5 = alloca i64, align 8
  %6 = alloca i64, align 8
  %7 = alloca i8, align 1
  %8 = alloca i64, align 8
  %9 = alloca i64, align 8
  %10 = alloca i64, align 8
  store ptr %0, ptr %4, align 8
  store i64 %1, ptr %5, align 8
  store i64 %2, ptr %6, align 8
  %11 = load ptr, ptr %4, align 8
  store i8 0, ptr %7, align 1
  %12 = load i64, ptr %5, align 8
  %13 = load i64, ptr %6, align 8
  %14 = icmp ult i64 %12, %13
  br i1 %14, label %15, label %16

15:                                               ; preds = %3
  store i8 1, ptr %7, align 1
  call void @_ZL4swapImEvRT_S1_(ptr noundef nonnull align 8 dereferenceable(8) %5, ptr noundef nonnull align 8 dereferenceable(8) %6)
  br label %16

16:                                               ; preds = %15, %3
  %17 = load i64, ptr %5, align 8
  %18 = load i64, ptr %6, align 8
  %19 = sub i64 %17, %18
  store i64 %19, ptr %8, align 8
  %20 = load i64, ptr %8, align 8
  %21 = getelementptr inbounds %class.MemReporterBase, ptr %11, i32 0, i32 0
  %22 = load i64, ptr %21, align 8
  %23 = udiv i64 %20, %22
  store i64 %23, ptr %9, align 8
  %24 = load i64, ptr %8, align 8
  %25 = getelementptr inbounds %class.MemReporterBase, ptr %11, i32 0, i32 0
  %26 = load i64, ptr %25, align 8
  %27 = urem i64 %24, %26
  %28 = getelementptr inbounds %class.MemReporterBase, ptr %11, i32 0, i32 0
  %29 = load i64, ptr %28, align 8
  %30 = sub i64 %29, 1
  %31 = udiv i64 %30, 2
  %32 = icmp ugt i64 %27, %31
  br i1 %32, label %33, label %36

33:                                               ; preds = %16
  %34 = load i64, ptr %9, align 8
  %35 = add i64 %34, 1
  store i64 %35, ptr %9, align 8
  br label %36

36:                                               ; preds = %33, %16
  %37 = load i64, ptr %9, align 8
  store i64 %37, ptr %10, align 8
  %38 = load i8, ptr %7, align 1
  %39 = trunc i8 %38 to i1
  br i1 %39, label %40, label %43

40:                                               ; preds = %36
  %41 = load i64, ptr %10, align 8
  %42 = sub nsw i64 0, %41
  br label %45

43:                                               ; preds = %36
  %44 = load i64, ptr %10, align 8
  br label %45

45:                                               ; preds = %43, %40
  %46 = phi i64 [ %42, %40 ], [ %44, %43 ]
  ret i64 %46
}

; Function Attrs: mustprogress nounwind uwtable
define linkonce_odr hidden noundef ptr @_ZNK15MemReporterBase6outputEv(ptr noundef nonnull align 8 dereferenceable(32) %0) #1 comdat align 2 {
  %2 = alloca ptr, align 8
  store ptr %0, ptr %2, align 8
  %3 = load ptr, ptr %2, align 8
  %4 = getelementptr inbounds %class.MemReporterBase, ptr %3, i32 0, i32 1
  %5 = load ptr, ptr %4, align 8
  ret ptr %5
}

; Function Attrs: mustprogress nounwind uwtable
define hidden void @_ZNK21MemDetailDiffReporter16diff_malloc_siteEPK15NativeCallStackmmmm8MEMFLAGS(ptr noundef nonnull align 8 dereferenceable(2464) %0, ptr noundef %1, i64 noundef %2, i64 noundef %3, i64 noundef %4, i64 noundef %5, i8 noundef zeroext %6) #1 align 2 {
  %8 = alloca ptr, align 8
  %9 = alloca ptr, align 8
  %10 = alloca i64, align 8
  %11 = alloca i64, align 8
  %12 = alloca i64, align 8
  %13 = alloca i64, align 8
  %14 = alloca i8, align 1
  %15 = alloca ptr, align 8
  %16 = alloca %class.streamIndentor, align 8
  store ptr %0, ptr %8, align 8
  store ptr %1, ptr %9, align 8
  store i64 %2, ptr %10, align 8
  store i64 %3, ptr %11, align 8
  store i64 %4, ptr %12, align 8
  store i64 %5, ptr %13, align 8
  store i8 %6, ptr %14, align 1
  %17 = load ptr, ptr %8, align 8
  %18 = getelementptr inbounds i8, ptr %17, i64 8
  %19 = call noundef ptr @_ZNK15MemReporterBase6outputEv(ptr noundef nonnull align 8 dereferenceable(32) %18)
  store ptr %19, ptr %15, align 8
  %20 = getelementptr inbounds i8, ptr %17, i64 8
  %21 = load i64, ptr %10, align 8
  %22 = load i64, ptr %12, align 8
  %23 = call noundef i64 @_ZNK15MemReporterBase21diff_in_current_scaleEmm(ptr noundef nonnull align 8 dereferenceable(32) %20, i64 noundef %21, i64 noundef %22)
  %24 = icmp eq i64 %23, 0
  br i1 %24, label %25, label %26

25:                                               ; preds = %7
  br label %38

26:                                               ; preds = %7
  %27 = getelementptr inbounds %class.MemDetailDiffReporter, ptr %17, i32 0, i32 1
  %28 = load ptr, ptr %9, align 8
  call void @_ZNK22NativeCallStackPrinter11print_stackEPK15NativeCallStack(ptr noundef nonnull align 8 dereferenceable(2408) %27, ptr noundef %28)
  %29 = load ptr, ptr %15, align 8
  call void @_ZN14streamIndentorC2EP12outputStreami(ptr noundef nonnull align 8 dereferenceable(12) %16, ptr noundef %29, i32 noundef 28)
  %30 = load ptr, ptr %15, align 8
  call void (ptr, ptr, ...) @_ZN12outputStream5printEPKcz(ptr noundef nonnull align 8 dereferenceable(56) %30, ptr noundef @.str.38)
  %31 = load i64, ptr %10, align 8
  %32 = load i64, ptr %11, align 8
  %33 = load i64, ptr %12, align 8
  %34 = load i64, ptr %13, align 8
  %35 = load i8, ptr %14, align 1
  call void @_ZNK22MemSummaryDiffReporter17print_malloc_diffEmmmm8MEMFLAGS(ptr noundef nonnull align 8 dereferenceable(56) %17, i64 noundef %31, i64 noundef %32, i64 noundef %33, i64 noundef %34, i8 noundef zeroext %35)
  %36 = load ptr, ptr %15, align 8
  call void (ptr, ptr, ...) @_ZN12outputStream8print_crEPKcz(ptr noundef nonnull align 8 dereferenceable(56) %36, ptr noundef @.str.10)
  call void @_ZN14streamIndentorD2Ev(ptr noundef nonnull align 8 dereferenceable(12) %16) #6
  %37 = load ptr, ptr %15, align 8
  call void @_ZN12outputStream2crEv(ptr noundef nonnull align 8 dereferenceable(56) %37)
  br label %38

38:                                               ; preds = %26, %25
  ret void
}