; Function Attrs: mustprogress nounwind uwtable
define hidden void @_ZNK21MemDetailDiffReporter16diff_malloc_siteEPK15NativeCallStackmmmm8MEMFLAGS(ptr noundef nonnull align 8 dereferenceable(2464) %0, ptr noundef %1, i64 noundef %2, i64 noundef %3, i64 noundef %4, i64 noundef %5, i8 noundef zeroext %6) local_unnamed_addr #0 align 2 {
  %8 = getelementptr inbounds i8, ptr %0, i64 8
  %9 = icmp ult i64 %2, %4
  %spec.select12.i = tail call i64 @llvm.umax.i64(i64 %2, i64 %4)
  %spec.select13.i = tail call i64 @llvm.umin.i64(i64 %2, i64 %4)
  %10 = sub i64 %spec.select12.i, %spec.select13.i
  %11 = load i64, ptr %8, align 8
  %12 = udiv i64 %10, %11
  %13 = urem i64 %10, %11
  %14 = add i64 %11, -1
  %15 = lshr i64 %14, 1
  %16 = icmp ugt i64 %13, %15
  %17 = zext i1 %16 to i64
  %spec.select.i = add i64 %12, %17
  %18 = sub nsw i64 0, %spec.select.i
  %19 = select i1 %9, i64 %18, i64 %spec.select.i
  %20 = icmp eq i64 %19, 0
  br i1 %20, label %30, label %21

21:                                               ; preds = %7
  %22 = getelementptr inbounds i8, ptr %0, i64 16
  %23 = load ptr, ptr %22, align 8
  %24 = getelementptr inbounds i8, ptr %0, i64 56
  tail call void @_ZNK22NativeCallStackPrinter11print_stackEPK15NativeCallStack(ptr noundef nonnull align 8 dereferenceable(2408) %24, ptr noundef %1) #7
  %25 = getelementptr inbounds i8, ptr %23, i64 8
  %26 = load i32, ptr %25, align 8
  %27 = add nsw i32 %26, 28
  store i32 %27, ptr %25, align 8
  tail call void (ptr, ptr, ...) @_ZN12outputStream5printEPKcz(ptr noundef nonnull align 8 dereferenceable(56) %23, ptr noundef nonnull @.str.38) #7
  tail call void @_ZNK22MemSummaryDiffReporter17print_malloc_diffEmmmm8MEMFLAGS(ptr noundef nonnull align 8 dereferenceable(56) %0, i64 noundef %2, i64 noundef %3, i64 noundef %4, i64 noundef %5, i8 noundef zeroext %6)
  tail call void (ptr, ptr, ...) @_ZN12outputStream8print_crEPKcz(ptr noundef nonnull align 8 dereferenceable(56) %23, ptr noundef nonnull @.str.10) #7
  %28 = load i32, ptr %25, align 8
  %29 = add nsw i32 %28, -28
  store i32 %29, ptr %25, align 8
  tail call void @_ZN12outputStream2crEv(ptr noundef nonnull align 8 dereferenceable(56) %23) #7
  br label %30

30:                                               ; preds = %7, %21
  ret void
}